target datalayout = "e-m:e-p270:32:32-p271:32:32-p272:64:64-i64:64-i128:128-f80:128-n8:16:32:64-S128"
target triple = "x86_64-pc-linux-gnu"

%struct.CPpmd7z_RangeDec = type { %struct.IPpmd7_RangeDec, i32, i32, i32, i32, ptr }
%struct.IPpmd7_RangeDec = type { ptr, ptr, ptr }

; Function Attrs: nounwind uwtable
define internal i32 @Range_GetThreshold(ptr noundef %0, i32 noundef %1) #0 {
  %3 = alloca ptr, align 8
  %4 = alloca i32, align 4
  %5 = alloca ptr, align 8
  store ptr %0, ptr %3, align 8, !tbaa !4
  store i32 %1, ptr %4, align 4, !tbaa !15
  call void @llvm.lifetime.start.p0(i64 8, ptr %5) #6
  %6 = load ptr, ptr %3, align 8, !tbaa !4
  store ptr %6, ptr %5, align 8, !tbaa !4
  %7 = load ptr, ptr %5, align 8, !tbaa !4
  %8 = getelementptr inbounds nuw %struct.CPpmd7z_RangeDec, ptr %7, i32 0, i32 2
  %9 = load i32, ptr %8, align 4, !tbaa !101
  %10 = load ptr, ptr %5, align 8, !tbaa !4
  %11 = getelementptr inbounds nuw %struct.CPpmd7z_RangeDec, ptr %10, i32 0, i32 3
  %12 = load i32, ptr %11, align 8, !tbaa !102
  %13 = sub i32 %9, %12
  %14 = load i32, ptr %4, align 4, !tbaa !15
  %15 = load ptr, ptr %5, align 8, !tbaa !4
  %16 = getelementptr inbounds nuw %struct.CPpmd7z_RangeDec, ptr %15, i32 0, i32 1
  %17 = load i32, ptr %16, align 8, !tbaa !103
  %18 = udiv i32 %17, %14
  store i32 %18, ptr %16, align 8, !tbaa !103
  %19 = udiv i32 %13, %18
  call void @llvm.lifetime.end.p0(i64 8, ptr %5) #6
  ret i32 %19
}