; Function Attrs: mustprogress nofree norecurse nosync nounwind willreturn memory(argmem: readwrite) uwtable
define internal i32 @Range_GetThreshold(ptr noundef captures(none) %0, i32 noundef %1) #9 {
  %3 = getelementptr inbounds nuw i8, ptr %0, i64 28
  %4 = load i32, ptr %3, align 4, !tbaa !38
  %5 = getelementptr inbounds nuw i8, ptr %0, i64 32
  %6 = load i32, ptr %5, align 8, !tbaa !36
  %7 = sub i32 %4, %6
  %8 = getelementptr inbounds nuw i8, ptr %0, i64 24
  %9 = load i32, ptr %8, align 8, !tbaa !37
  %10 = udiv i32 %9, %1
  store i32 %10, ptr %8, align 8, !tbaa !37
  %11 = udiv i32 %7, %10
  ret i32 %11
}